target datalayout = "e-m:e-p270:32:32-p271:32:32-p272:64:64-i64:64-i128:128-f80:128-n8:16:32:64-S128"
target triple = "x86_64-unknown-linux-gnu"

%"class.icu_75::UObject" = type { ptr }
%"class.icu_75::UnicodeString" = type { %"class.icu_75::Replaceable", %"union.icu_75::UnicodeString::StackBufferOrFields" }
%"class.icu_75::Replaceable" = type { %"class.icu_75::UObject" }
%"union.icu_75::UnicodeString::StackBufferOrFields" = type { %struct.anon.0, [32 x i8] }
%struct.anon.0 = type { i16, i32, i32, ptr }

@.str = private unnamed_addr constant [5 x i8] c"%.*g\00", align 1

; Function Attrs: mustprogress uwtable
define noundef nonnull align 8 dereferenceable(64) ptr @_ZN6icu_7512ChoiceFormat4dtosEdRNS_13UnicodeStringE(double noundef %value, ptr noundef nonnull align 8 dereferenceable(64) %string) #1 align 2 {
entry:
  %value.addr = alloca double, align 8
  %string.addr = alloca ptr, align 8
  %temp = alloca [31 x i8], align 16
  %itrPtr = alloca ptr, align 8
  %expPtr = alloca ptr, align 8
  %ref.tmp = alloca %"class.icu_75::UnicodeString", align 8
  store double %value, ptr %value.addr, align 8
  store ptr %string, ptr %string.addr, align 8
  %arraydecay = getelementptr inbounds [31 x i8], ptr %temp, i64 0, i64 0
  store ptr %arraydecay, ptr %itrPtr, align 8
  %arraydecay1 = getelementptr inbounds [31 x i8], ptr %temp, i64 0, i64 0
  %0 = load double, ptr %value.addr, align 8
  %call = call i32 (ptr, i64, ptr, ...) @snprintf(ptr noundef %arraydecay1, i64 noundef 31, ptr noundef @.str, i32 noundef 15, double noundef %0) #5
  br label %while.cond

while.cond:                                       ; preds = %while.body, %entry
  %1 = load ptr, ptr %itrPtr, align 8
  %2 = load i8, ptr %1, align 1
  %tobool = icmp ne i8 %2, 0
  br i1 %tobool, label %land.rhs, label %land.end

land.rhs:                                         ; preds = %while.cond
  %3 = load ptr, ptr %itrPtr, align 8
  %4 = load i8, ptr %3, align 1
  %conv = sext i8 %4 to i32
  %cmp = icmp eq i32 %conv, 45
  br i1 %cmp, label %lor.end, label %lor.rhs

lor.rhs:                                          ; preds = %land.rhs
  %5 = load ptr, ptr %itrPtr, align 8
  %6 = load i8, ptr %5, align 1
  %conv2 = sext i8 %6 to i32
  %call3 = call i32 @isdigit(i32 noundef %conv2) #6
  %tobool4 = icmp ne i32 %call3, 0
  br label %lor.end

lor.end:                                          ; preds = %lor.rhs, %land.rhs
  %7 = phi i1 [ true, %land.rhs ], [ %tobool4, %lor.rhs ]
  br label %land.end

land.end:                                         ; preds = %lor.end, %while.cond
  %8 = phi i1 [ false, %while.cond ], [ %7, %lor.end ]
  br i1 %8, label %while.body, label %while.end

while.body:                                       ; preds = %land.end
  %9 = load ptr, ptr %itrPtr, align 8
  %incdec.ptr = getelementptr inbounds i8, ptr %9, i32 1
  store ptr %incdec.ptr, ptr %itrPtr, align 8
  br label %while.cond, !llvm.loop !4

while.end:                                        ; preds = %land.end
  %10 = load ptr, ptr %itrPtr, align 8
  %11 = load i8, ptr %10, align 1
  %conv5 = sext i8 %11 to i32
  %cmp6 = icmp ne i32 %conv5, 0
  br i1 %cmp6, label %land.lhs.true, label %if.end

land.lhs.true:                                    ; preds = %while.end
  %12 = load ptr, ptr %itrPtr, align 8
  %13 = load i8, ptr %12, align 1
  %conv7 = sext i8 %13 to i32
  %cmp8 = icmp ne i32 %conv7, 101
  br i1 %cmp8, label %if.then, label %if.end

if.then:                                          ; preds = %land.lhs.true
  %14 = load ptr, ptr %itrPtr, align 8
  store i8 46, ptr %14, align 1
  %15 = load ptr, ptr %itrPtr, align 8
  %incdec.ptr9 = getelementptr inbounds i8, ptr %15, i32 1
  store ptr %incdec.ptr9, ptr %itrPtr, align 8
  br label %if.end

if.end:                                           ; preds = %if.then, %land.lhs.true, %while.end
  br label %while.cond10

while.cond10:                                     ; preds = %while.body16, %if.end
  %16 = load ptr, ptr %itrPtr, align 8
  %17 = load i8, ptr %16, align 1
  %tobool11 = icmp ne i8 %17, 0
  br i1 %tobool11, label %land.rhs12, label %land.end15

land.rhs12:                                       ; preds = %while.cond10
  %18 = load ptr, ptr %itrPtr, align 8
  %19 = load i8, ptr %18, align 1
  %conv13 = sext i8 %19 to i32
  %cmp14 = icmp ne i32 %conv13, 101
  br label %land.end15

land.end15:                                       ; preds = %land.rhs12, %while.cond10
  %20 = phi i1 [ false, %while.cond10 ], [ %cmp14, %land.rhs12 ]
  br i1 %20, label %while.body16, label %while.end18

while.body16:                                     ; preds = %land.end15
  %21 = load ptr, ptr %itrPtr, align 8
  %incdec.ptr17 = getelementptr inbounds i8, ptr %21, i32 1
  store ptr %incdec.ptr17, ptr %itrPtr, align 8
  br label %while.cond10, !llvm.loop !6

while.end18:                                      ; preds = %land.end15
  %22 = load ptr, ptr %itrPtr, align 8
  %23 = load i8, ptr %22, align 1
  %conv19 = sext i8 %23 to i32
  %cmp20 = icmp eq i32 %conv19, 101
  br i1 %cmp20, label %if.then21, label %if.end47

if.then21:                                        ; preds = %while.end18
  %24 = load ptr, ptr %itrPtr, align 8
  %incdec.ptr22 = getelementptr inbounds i8, ptr %24, i32 1
  store ptr %incdec.ptr22, ptr %itrPtr, align 8
  %25 = load ptr, ptr %itrPtr, align 8
  %26 = load i8, ptr %25, align 1
  %conv23 = sext i8 %26 to i32
  %cmp24 = icmp eq i32 %conv23, 43
  br i1 %cmp24, label %if.then27, label %lor.lhs.false

lor.lhs.false:                                    ; preds = %if.then21
  %27 = load ptr, ptr %itrPtr, align 8
  %28 = load i8, ptr %27, align 1
  %conv25 = sext i8 %28 to i32
  %cmp26 = icmp eq i32 %conv25, 45
  br i1 %cmp26, label %if.then27, label %if.end29

if.then27:                                        ; preds = %lor.lhs.false, %if.then21
  %29 = load ptr, ptr %itrPtr, align 8
  %incdec.ptr28 = getelementptr inbounds i8, ptr %29, i32 1
  store ptr %incdec.ptr28, ptr %itrPtr, align 8
  br label %if.end29

if.end29:                                         ; preds = %if.then27, %lor.lhs.false
  %30 = load ptr, ptr %itrPtr, align 8
  store ptr %30, ptr %expPtr, align 8
  br label %while.cond30

while.cond30:                                     ; preds = %while.body33, %if.end29
  %31 = load ptr, ptr %itrPtr, align 8
  %32 = load i8, ptr %31, align 1
  %conv31 = sext i8 %32 to i32
  %cmp32 = icmp eq i32 %conv31, 48
  br i1 %cmp32, label %while.body33, label %while.end35

while.body33:                                     ; preds = %while.cond30
  %33 = load ptr, ptr %itrPtr, align 8
  %incdec.ptr34 = getelementptr inbounds i8, ptr %33, i32 1
  store ptr %incdec.ptr34, ptr %itrPtr, align 8
  br label %while.cond30, !llvm.loop !7

while.end35:                                      ; preds = %while.cond30
  %34 = load ptr, ptr %itrPtr, align 8
  %35 = load i8, ptr %34, align 1
  %tobool36 = icmp ne i8 %35, 0
  br i1 %tobool36, label %land.lhs.true37, label %if.end46

land.lhs.true37:                                  ; preds = %while.end35
  %36 = load ptr, ptr %expPtr, align 8
  %37 = load ptr, ptr %itrPtr, align 8
  %cmp38 = icmp ne ptr %36, %37
  br i1 %cmp38, label %if.then39, label %if.end46

if.then39:                                        ; preds = %land.lhs.true37
  br label %while.cond40

while.cond40:                                     ; preds = %while.body42, %if.then39
  %38 = load ptr, ptr %itrPtr, align 8
  %39 = load i8, ptr %38, align 1
  %tobool41 = icmp ne i8 %39, 0
  br i1 %tobool41, label %while.body42, label %while.end45

while.body42:                                     ; preds = %while.cond40
  %40 = load ptr, ptr %itrPtr, align 8
  %incdec.ptr43 = getelementptr inbounds i8, ptr %40, i32 1
  store ptr %incdec.ptr43, ptr %itrPtr, align 8
  %41 = load i8, ptr %40, align 1
  %42 = load ptr, ptr %expPtr, align 8
  %incdec.ptr44 = getelementptr inbounds i8, ptr %42, i32 1
  store ptr %incdec.ptr44, ptr %expPtr, align 8
  store i8 %41, ptr %42, align 1
  br label %while.cond40, !llvm.loop !8

while.end45:                                      ; preds = %while.cond40
  %43 = load ptr, ptr %expPtr, align 8
  store i8 0, ptr %43, align 1
  br label %if.end46

if.end46:                                         ; preds = %while.end45, %land.lhs.true37, %while.end35
  br label %if.end47

if.end47:                                         ; preds = %if.end46, %while.end18
  %arraydecay48 = getelementptr inbounds [31 x i8], ptr %temp, i64 0, i64 0
  call void @_ZN6icu_7513UnicodeStringC1EPKciNS0_10EInvariantE(ptr noundef nonnull align 8 dereferenceable(64) %ref.tmp, ptr noundef %arraydecay48, i32 noundef -1, i32 noundef 0)
  %44 = load ptr, ptr %string.addr, align 8
  %call49 = call noundef nonnull align 8 dereferenceable(64) ptr @_ZN6icu_7513UnicodeStringaSEOS0_(ptr noundef nonnull align 8 dereferenceable(64) %44, ptr noundef nonnull align 8 dereferenceable(64) %ref.tmp) #5
  call void @_ZN6icu_7513UnicodeStringD1Ev(ptr noundef nonnull align 8 dereferenceable(64) %ref.tmp) #5
  %45 = load ptr, ptr %string.addr, align 8
  ret ptr %45
}