; Function Attrs: mustprogress uwtable
define noundef nonnull align 8 dereferenceable(64) ptr @_ZN6icu_7512ChoiceFormat4dtosEdRNS_13UnicodeStringE(double noundef %value, ptr noundef nonnull returned align 8 dereferenceable(64) %string) local_unnamed_addr #1 align 2 {
entry:
  %temp = alloca [31 x i8], align 16
  %ref.tmp = alloca %"class.icu_75::UnicodeString", align 8
  %call = call i32 (ptr, i64, ptr, ...) @snprintf(ptr noundef nonnull dereferenceable(1) %temp, i64 noundef 31, ptr noundef nonnull @.str, i32 noundef 15, double noundef %value) #9
  br label %while.cond

while.cond:                                       ; preds = %while.body, %entry
  %itrPtr.0 = phi ptr [ %temp, %entry ], [ %incdec.ptr, %while.body ]
  %0 = load i8, ptr %itrPtr.0, align 1
  switch i8 %0, label %lor.rhs [
    i8 0, label %while.cond10.preheader
    i8 45, label %while.body
  ]

lor.rhs:                                          ; preds = %while.cond
  %conv = sext i8 %0 to i32
  %isdigittmp = add nsw i32 %conv, -48
  %isdigit = icmp ult i32 %isdigittmp, 10
  br i1 %isdigit, label %while.body, label %while.end

while.body:                                       ; preds = %while.cond, %lor.rhs
  %incdec.ptr = getelementptr inbounds i8, ptr %itrPtr.0, i64 1
  br label %while.cond, !llvm.loop !4

while.end:                                        ; preds = %lor.rhs
  switch i8 %0, label %if.then [
    i8 0, label %while.cond10.preheader
    i8 101, label %while.cond10.preheader
  ]

if.then:                                          ; preds = %while.end
  store i8 46, ptr %itrPtr.0, align 1
  %incdec.ptr9 = getelementptr inbounds i8, ptr %itrPtr.0, i64 1
  br label %while.cond10.preheader

while.cond10.preheader:                           ; preds = %while.cond, %while.end, %while.end, %if.then
  %itrPtr.2.ph = phi ptr [ %itrPtr.0, %while.end ], [ %itrPtr.0, %while.end ], [ %incdec.ptr9, %if.then ], [ %itrPtr.0, %while.cond ]
  br label %while.cond10

while.cond10:                                     ; preds = %while.cond10.preheader, %while.body16
  %itrPtr.2 = phi ptr [ %incdec.ptr17, %while.body16 ], [ %itrPtr.2.ph, %while.cond10.preheader ]
  %1 = load i8, ptr %itrPtr.2, align 1
  switch i8 %1, label %while.body16 [
    i8 101, label %if.then21
    i8 0, label %if.end47
  ]

while.body16:                                     ; preds = %while.cond10
  %incdec.ptr17 = getelementptr inbounds i8, ptr %itrPtr.2, i64 1
  br label %while.cond10, !llvm.loop !6

if.then21:                                        ; preds = %while.cond10
  %incdec.ptr22 = getelementptr inbounds i8, ptr %itrPtr.2, i64 1
  %2 = load i8, ptr %incdec.ptr22, align 1
  switch i8 %2, label %if.end29 [
    i8 43, label %if.then27
    i8 45, label %if.then27
  ]

if.then27:                                        ; preds = %if.then21, %if.then21
  %incdec.ptr28 = getelementptr inbounds i8, ptr %itrPtr.2, i64 2
  br label %if.end29

if.end29:                                         ; preds = %if.then21, %if.then27
  %itrPtr.3 = phi ptr [ %incdec.ptr28, %if.then27 ], [ %incdec.ptr22, %if.then21 ]
  br label %while.cond30

while.cond30:                                     ; preds = %while.body33, %if.end29
  %itrPtr.4 = phi ptr [ %itrPtr.3, %if.end29 ], [ %incdec.ptr34, %while.body33 ]
  %3 = load i8, ptr %itrPtr.4, align 1
  switch i8 %3, label %land.lhs.true37 [
    i8 48, label %while.body33
    i8 0, label %if.end47
  ]

while.body33:                                     ; preds = %while.cond30
  %incdec.ptr34 = getelementptr inbounds i8, ptr %itrPtr.4, i64 1
  br label %while.cond30, !llvm.loop !7

land.lhs.true37:                                  ; preds = %while.cond30
  %cmp38.not = icmp eq ptr %itrPtr.3, %itrPtr.4
  br i1 %cmp38.not, label %if.end47, label %while.body42

while.body42:                                     ; preds = %land.lhs.true37, %while.body42
  %expPtr.037 = phi ptr [ %incdec.ptr44, %while.body42 ], [ %itrPtr.3, %land.lhs.true37 ]
  %itrPtr.536 = phi ptr [ %incdec.ptr43, %while.body42 ], [ %itrPtr.4, %land.lhs.true37 ]
  %4 = phi i8 [ %.pr, %while.body42 ], [ %3, %land.lhs.true37 ]
  %incdec.ptr43 = getelementptr inbounds i8, ptr %itrPtr.536, i64 1
  %incdec.ptr44 = getelementptr inbounds i8, ptr %expPtr.037, i64 1
  store i8 %4, ptr %expPtr.037, align 1
  %.pr = load i8, ptr %incdec.ptr43, align 1
  %tobool41.not = icmp eq i8 %.pr, 0
  br i1 %tobool41.not, label %while.end45, label %while.body42, !llvm.loop !8

while.end45:                                      ; preds = %while.body42
  store i8 0, ptr %incdec.ptr44, align 1
  br label %if.end47

if.end47:                                         ; preds = %while.cond10, %while.cond30, %land.lhs.true37, %while.end45
  call void @_ZN6icu_7513UnicodeStringC1EPKciNS0_10EInvariantE(ptr noundef nonnull align 8 dereferenceable(64) %ref.tmp, ptr noundef nonnull %temp, i32 noundef -1, i32 noundef 0)
  %call49 = call noundef nonnull align 8 dereferenceable(64) ptr @_ZN6icu_7513UnicodeStringaSEOS0_(ptr noundef nonnull align 8 dereferenceable(64) %string, ptr noundef nonnull align 8 dereferenceable(64) %ref.tmp) #9
  call void @_ZN6icu_7513UnicodeStringD1Ev(ptr noundef nonnull align 8 dereferenceable(64) %ref.tmp) #9
  ret ptr %string
}